; ModuleID = '32/89.c'
source_filename = "32/89.c"
target datalayout = "e-m:e-p270:32:32-p271:32:32-p272:64:64-i64:64-f80:128-n8:16:32:64-S128"
target triple = "x86_64-pc-linux-gnu"

@.str = private unnamed_addr constant [3 x i8] c"%d\00", align 1
@.str.1 = private unnamed_addr constant [5 x i8] c"%s%s\00", align 1
@.str.2 = private unnamed_addr constant [3 x i8] c"%c\00", align 1
@.str.3 = private unnamed_addr constant [2 x i8] c"\0A\00", align 1

; Function Attrs: noinline nounwind uwtable
define dso_local void @main() #0 {
  %1 = alloca i32, align 4
  %2 = alloca i32, align 4
  %3 = alloca [100 x [100 x i8]], align 16
  %4 = alloca [100 x [100 x i8]], align 16
  %5 = alloca i32, align 4
  %6 = alloca i32, align 4
  %7 = alloca i32, align 4
  %8 = alloca i32, align 4
  %9 = call i32 (i8*, ...) @__isoc99_scanf(i8* getelementptr inbounds ([3 x i8], [3 x i8]* @.str, i64 0, i64 0), i32* %1)
  store i32 0, i32* %2, align 4
  br label %10

10:                                               ; preds = %24, %0
  %11 = load i32, i32* %2, align 4
  %12 = load i32, i32* %1, align 4
  %13 = icmp slt i32 %11, %12
  br i1 %13, label %14, label %27

14:                                               ; preds = %10
  %15 = load i32, i32* %2, align 4
  %16 = sext i32 %15 to i64
  %17 = getelementptr inbounds [100 x [100 x i8]], [100 x [100 x i8]]* %3, i64 0, i64 %16
  %18 = getelementptr inbounds [100 x i8], [100 x i8]* %17, i64 0, i64 0
  %19 = load i32, i32* %2, align 4
  %20 = sext i32 %19 to i64
  %21 = getelementptr inbounds [100 x [100 x i8]], [100 x [100 x i8]]* %4, i64 0, i64 %20
  %22 = getelementptr inbounds [100 x i8], [100 x i8]* %21, i64 0, i64 0
  %23 = call i32 (i8*, ...) @__isoc99_scanf(i8* getelementptr inbounds ([5 x i8], [5 x i8]* @.str.1, i64 0, i64 0), i8* %18, i8* %22)
  br label %24

24:                                               ; preds = %14
  %25 = load i32, i32* %2, align 4
  %26 = add nsw i32 %25, 1
  store i32 %26, i32* %2, align 4
  br label %10

27:                                               ; preds = %10
  store i32 0, i32* %2, align 4
  br label %28

28:                                               ; preds = %217, %27
  %29 = load i32, i32* %2, align 4
  %30 = load i32, i32* %1, align 4
  %31 = icmp slt i32 %29, %30
  br i1 %31, label %32, label %220

32:                                               ; preds = %28
  %33 = load i32, i32* %2, align 4
  %34 = sext i32 %33 to i64
  %35 = getelementptr inbounds [100 x [100 x i8]], [100 x [100 x i8]]* %3, i64 0, i64 %34
  %36 = getelementptr inbounds [100 x i8], [100 x i8]* %35, i64 0, i64 0
  %37 = call i64 @strlen(i8* %36) #3
  %38 = trunc i64 %37 to i32
  store i32 %38, i32* %5, align 4
  %39 = load i32, i32* %2, align 4
  %40 = sext i32 %39 to i64
  %41 = getelementptr inbounds [100 x [100 x i8]], [100 x [100 x i8]]* %4, i64 0, i64 %40
  %42 = getelementptr inbounds [100 x i8], [100 x i8]* %41, i64 0, i64 0
  %43 = call i64 @strlen(i8* %42) #3
  %44 = trunc i64 %43 to i32
  store i32 %44, i32* %6, align 4
  %45 = load i32, i32* %6, align 4
  %46 = sub nsw i32 %45, 1
  store i32 %46, i32* %7, align 4
  %47 = load i32, i32* %5, align 4
  %48 = sub nsw i32 %47, 1
  store i32 %48, i32* %8, align 4
  br label %49

49:                                               ; preds = %160, %32
  %50 = load i32, i32* %7, align 4
  %51 = icmp sge i32 %50, 0
  br i1 %51, label %52, label %165

52:                                               ; preds = %49
  %53 = load i32, i32* %2, align 4
  %54 = sext i32 %53 to i64
  %55 = getelementptr inbounds [100 x [100 x i8]], [100 x [100 x i8]]* %3, i64 0, i64 %54
  %56 = load i32, i32* %8, align 4
  %57 = sext i32 %56 to i64
  %58 = getelementptr inbounds [100 x i8], [100 x i8]* %55, i64 0, i64 %57
  %59 = load i8, i8* %58, align 1
  %60 = sext i8 %59 to i32
  %61 = load i32, i32* %2, align 4
  %62 = sext i32 %61 to i64
  %63 = getelementptr inbounds [100 x [100 x i8]], [100 x [100 x i8]]* %4, i64 0, i64 %62
  %64 = load i32, i32* %7, align 4
  %65 = sext i32 %64 to i64
  %66 = getelementptr inbounds [100 x i8], [100 x i8]* %63, i64 0, i64 %65
  %67 = load i8, i8* %66, align 1
  %68 = sext i8 %67 to i32
  %69 = icmp sge i32 %60, %68
  br i1 %69, label %70, label %96

70:                                               ; preds = %52
  %71 = load i32, i32* %2, align 4
  %72 = sext i32 %71 to i64
  %73 = getelementptr inbounds [100 x [100 x i8]], [100 x [100 x i8]]* %3, i64 0, i64 %72
  %74 = load i32, i32* %8, align 4
  %75 = sext i32 %74 to i64
  %76 = getelementptr inbounds [100 x i8], [100 x i8]* %73, i64 0, i64 %75
  %77 = load i8, i8* %76, align 1
  %78 = sext i8 %77 to i32
  %79 = load i32, i32* %2, align 4
  %80 = sext i32 %79 to i64
  %81 = getelementptr inbounds [100 x [100 x i8]], [100 x [100 x i8]]* %4, i64 0, i64 %80
  %82 = load i32, i32* %7, align 4
  %83 = sext i32 %82 to i64
  %84 = getelementptr inbounds [100 x i8], [100 x i8]* %81, i64 0, i64 %83
  %85 = load i8, i8* %84, align 1
  %86 = sext i8 %85 to i32
  %87 = sub nsw i32 %78, %86
  %88 = add nsw i32 %87, 48
  %89 = trunc i32 %88 to i8
  %90 = load i32, i32* %2, align 4
  %91 = sext i32 %90 to i64
  %92 = getelementptr inbounds [100 x [100 x i8]], [100 x [100 x i8]]* %3, i64 0, i64 %91
  %93 = load i32, i32* %8, align 4
  %94 = sext i32 %93 to i64
  %95 = getelementptr inbounds [100 x i8], [100 x i8]* %92, i64 0, i64 %94
  store i8 %89, i8* %95, align 1
  br label %159

96:                                               ; preds = %52
  %97 = load i32, i32* %2, align 4
  %98 = sext i32 %97 to i64
  %99 = getelementptr inbounds [100 x [100 x i8]], [100 x [100 x i8]]* %3, i64 0, i64 %98
  %100 = load i32, i32* %8, align 4
  %101 = sext i32 %100 to i64
  %102 = getelementptr inbounds [100 x i8], [100 x i8]* %99, i64 0, i64 %101
  %103 = load i8, i8* %102, align 1
  %104 = sext i8 %103 to i32
  %105 = load i32, i32* %2, align 4
  %106 = sext i32 %105 to i64
  %107 = getelementptr inbounds [100 x [100 x i8]], [100 x [100 x i8]]* %4, i64 0, i64 %106
  %108 = load i32, i32* %7, align 4
  %109 = sext i32 %108 to i64
  %110 = getelementptr inbounds [100 x i8], [100 x i8]* %107, i64 0, i64 %109
  %111 = load i8, i8* %110, align 1
  %112 = sext i8 %111 to i32
  %113 = icmp slt i32 %104, %112
  br i1 %113, label %114, label %158

114:                                              ; preds = %96
  %115 = load i32, i32* %2, align 4
  %116 = sext i32 %115 to i64
  %117 = getelementptr inbounds [100 x [100 x i8]], [100 x [100 x i8]]* %3, i64 0, i64 %116
  %118 = load i32, i32* %8, align 4
  %119 = sext i32 %118 to i64
  %120 = getelementptr inbounds [100 x i8], [100 x i8]* %117, i64 0, i64 %119
  %121 = load i8, i8* %120, align 1
  %122 = sext i8 %121 to i32
  %123 = load i32, i32* %2, align 4
  %124 = sext i32 %123 to i64
  %125 = getelementptr inbounds [100 x [100 x i8]], [100 x [100 x i8]]* %4, i64 0, i64 %124
  %126 = load i32, i32* %7, align 4
  %127 = sext i32 %126 to i64
  %128 = getelementptr inbounds [100 x i8], [100 x i8]* %125, i64 0, i64 %127
  %129 = load i8, i8* %128, align 1
  %130 = sext i8 %129 to i32
  %131 = sub nsw i32 %122, %130
  %132 = add nsw i32 %131, 58
  %133 = trunc i32 %132 to i8
  %134 = load i32, i32* %2, align 4
  %135 = sext i32 %134 to i64
  %136 = getelementptr inbounds [100 x [100 x i8]], [100 x [100 x i8]]* %3, i64 0, i64 %135
  %137 = load i32, i32* %8, align 4
  %138 = sext i32 %137 to i64
  %139 = getelementptr inbounds [100 x i8], [100 x i8]* %136, i64 0, i64 %138
  store i8 %133, i8* %139, align 1
  %140 = load i32, i32* %2, align 4
  %141 = sext i32 %140 to i64
  %142 = getelementptr inbounds [100 x [100 x i8]], [100 x [100 x i8]]* %3, i64 0, i64 %141
  %143 = load i32, i32* %8, align 4
  %144 = sub nsw i32 %143, 1
  %145 = sext i32 %144 to i64
  %146 = getelementptr inbounds [100 x i8], [100 x i8]* %142, i64 0, i64 %145
  %147 = load i8, i8* %146, align 1
  %148 = sext i8 %147 to i32
  %149 = sub nsw i32 %148, 1
  %150 = trunc i32 %149 to i8
  %151 = load i32, i32* %2, align 4
  %152 = sext i32 %151 to i64
  %153 = getelementptr inbounds [100 x [100 x i8]], [100 x [100 x i8]]* %3, i64 0, i64 %152
  %154 = load i32, i32* %8, align 4
  %155 = sub nsw i32 %154, 1
  %156 = sext i32 %155 to i64
  %157 = getelementptr inbounds [100 x i8], [100 x i8]* %153, i64 0, i64 %156
  store i8 %150, i8* %157, align 1
  br label %158

158:                                              ; preds = %114, %96
  br label %159

159:                                              ; preds = %158, %70
  br label %160

160:                                              ; preds = %159
  %161 = load i32, i32* %7, align 4
  %162 = add nsw i32 %161, -1
  store i32 %162, i32* %7, align 4
  %163 = load i32, i32* %8, align 4
  %164 = add nsw i32 %163, -1
  store i32 %164, i32* %8, align 4
  br label %49

165:                                              ; preds = %49
  store i32 0, i32* %8, align 4
  br label %166

166:                                              ; preds = %192, %165
  %167 = load i32, i32* %8, align 4
  %168 = load i32, i32* %5, align 4
  %169 = icmp slt i32 %167, %168
  br i1 %169, label %170, label %195

170:                                              ; preds = %166
  %171 = load i32, i32* %2, align 4
  %172 = sext i32 %171 to i64
  %173 = getelementptr inbounds [100 x [100 x i8]], [100 x [100 x i8]]* %3, i64 0, i64 %172
  %174 = load i32, i32* %8, align 4
  %175 = sext i32 %174 to i64
  %176 = getelementptr inbounds [100 x i8], [100 x i8]* %173, i64 0, i64 %175
  %177 = load i8, i8* %176, align 1
  %178 = sext i8 %177 to i32
  %179 = icmp ne i32 %178, 0
  br i1 %179, label %180, label %191

180:                                              ; preds = %170
  %181 = load i32, i32* %2, align 4
  %182 = sext i32 %181 to i64
  %183 = getelementptr inbounds [100 x [100 x i8]], [100 x [100 x i8]]* %3, i64 0, i64 %182
  %184 = load i32, i32* %8, align 4
  %185 = sext i32 %184 to i64
  %186 = getelementptr inbounds [100 x i8], [100 x i8]* %183, i64 0, i64 %185
  %187 = load i8, i8* %186, align 1
  %188 = sext i8 %187 to i32
  %189 = call i32 (i8*, ...) @printf(i8* getelementptr inbounds ([3 x i8], [3 x i8]* @.str.2, i64 0, i64 0), i32 %188)
  %190 = load i32, i32* %8, align 4
  store i32 %190, i32* %7, align 4
  br label %195

191:                                              ; preds = %170
  br label %192

192:                                              ; preds = %191
  %193 = load i32, i32* %8, align 4
  %194 = add nsw i32 %193, 1
  store i32 %194, i32* %8, align 4
  br label %166

195:                                              ; preds = %180, %166
  %196 = load i32, i32* %7, align 4
  %197 = add nsw i32 %196, 1
  store i32 %197, i32* %8, align 4
  br label %198

198:                                              ; preds = %212, %195
  %199 = load i32, i32* %8, align 4
  %200 = load i32, i32* %5, align 4
  %201 = icmp slt i32 %199, %200
  br i1 %201, label %202, label %215

202:                                              ; preds = %198
  %203 = load i32, i32* %2, align 4
  %204 = sext i32 %203 to i64
  %205 = getelementptr inbounds [100 x [100 x i8]], [100 x [100 x i8]]* %3, i64 0, i64 %204
  %206 = load i32, i32* %8, align 4
  %207 = sext i32 %206 to i64
  %208 = getelementptr inbounds [100 x i8], [100 x i8]* %205, i64 0, i64 %207
  %209 = load i8, i8* %208, align 1
  %210 = sext i8 %209 to i32
  %211 = call i32 (i8*, ...) @printf(i8* getelementptr inbounds ([3 x i8], [3 x i8]* @.str.2, i64 0, i64 0), i32 %210)
  br label %212

212:                                              ; preds = %202
  %213 = load i32, i32* %8, align 4
  %214 = add nsw i32 %213, 1
  store i32 %214, i32* %8, align 4
  br label %198

215:                                              ; preds = %198
  %216 = call i32 (i8*, ...) @printf(i8* getelementptr inbounds ([2 x i8], [2 x i8]* @.str.3, i64 0, i64 0))
  br label %217

217:                                              ; preds = %215
  %218 = load i32, i32* %2, align 4
  %219 = add nsw i32 %218, 1
  store i32 %219, i32* %2, align 4
  br label %28

220:                                              ; preds = %28
  ret void
}

declare dso_local i32 @__isoc99_scanf(i8*, ...) #1

; Function Attrs: nounwind readonly
declare dso_local i64 @strlen(i8*) #2

declare dso_local i32 @printf(i8*, ...) #1


!llvm.module.flags = !{!0}
!llvm.ident = !{!1}

!0 = !{i32 1, !"wchar_size", i32 4}
!1 = !{!"clang version 10.0.0-4ubuntu1 "}
